target datalayout = "e-m:e-p270:32:32-p271:32:32-p272:64:64-i64:64-i128:128-f80:128-n8:16:32:64-S128"
target triple = "x86_64-pc-linux-gnu"

@hf_nas_5gs_mm_sst = internal global i32 0, align 4
@hf_nas_5gs_mm_sd = internal global i32 0, align 4
@hf_nas_5gs_mm_len_of_rej_s_nssai = internal global i32 0, align 4
@hf_nas_5gs_mm_rej_s_nssai_cause = internal global i32 0, align 4
@ett_nas_5gs_mm_rej_nssai = internal global i32 0, align 4
@.str.1724 = private unnamed_addr constant [20 x i8] c"Rejected S-NSSAI %u\00", align 1

; Function Attrs: null_pointer_is_valid sspstrong uwtable
define internal zeroext i16 @de_nas_5gs_mm_rej_nssai(ptr noundef %0, ptr noundef %1, ptr noundef %2, i32 noundef %3, i32 noundef %4, ptr noundef %5, i32 noundef %6) #0 {
  %8 = alloca ptr, align 8
  %9 = alloca ptr, align 8
  %10 = alloca ptr, align 8
  %11 = alloca i32, align 4
  %12 = alloca i32, align 4
  %13 = alloca ptr, align 8
  %14 = alloca i32, align 4
  %15 = alloca ptr, align 8
  %16 = alloca ptr, align 8
  %17 = alloca i32, align 4
  %18 = alloca i32, align 4
  %19 = alloca i32, align 4
  %20 = alloca i32, align 4
  store ptr %0, ptr %8, align 8
  store ptr %1, ptr %9, align 8
  store ptr %2, ptr %10, align 8
  store i32 %3, ptr %11, align 4
  store i32 %4, ptr %12, align 4
  store ptr %5, ptr %13, align 8
  store i32 %6, ptr %14, align 4
  call void @llvm.lifetime.start.p0(i64 8, ptr %15) #11
  call void @llvm.lifetime.start.p0(i64 8, ptr %16) #11
  call void @llvm.lifetime.start.p0(i64 4, ptr %17) #11
  store i32 1, ptr %17, align 4
  call void @llvm.lifetime.start.p0(i64 4, ptr %18) #11
  %21 = load i32, ptr %11, align 4
  store i32 %21, ptr %18, align 4
  call void @llvm.lifetime.start.p0(i64 4, ptr %19) #11
  call void @llvm.lifetime.start.p0(i64 4, ptr %20) #11
  br label %22

22:                                               ; preds = %66, %7
  %23 = load i32, ptr %18, align 4
  %24 = load i32, ptr %11, align 4
  %25 = sub i32 %23, %24
  %26 = load i32, ptr %12, align 4
  %27 = icmp ult i32 %25, %26
  br i1 %27, label %28, label %71

28:                                               ; preds = %22
  %29 = load i32, ptr %18, align 4
  store i32 %29, ptr %19, align 4
  %30 = load ptr, ptr %9, align 8
  %31 = load ptr, ptr %8, align 8
  %32 = load i32, ptr %18, align 4
  %33 = load i32, ptr @ett_nas_5gs_mm_rej_nssai, align 4
  %34 = load i32, ptr %17, align 4
  %35 = add i32 %34, 1
  store i32 %35, ptr %17, align 4
  %36 = call ptr (ptr, ptr, i32, i32, i32, ptr, ptr, ...) @proto_tree_add_subtree_format(ptr noundef %30, ptr noundef %31, i32 noundef %32, i32 noundef -1, i32 noundef %33, ptr noundef %16, ptr noundef @.str.1724, i32 noundef %34)
  store ptr %36, ptr %15, align 8
  %37 = load ptr, ptr %15, align 8
  %38 = load i32, ptr @hf_nas_5gs_mm_len_of_rej_s_nssai, align 4
  %39 = load ptr, ptr %8, align 8
  %40 = load i32, ptr %18, align 4
  %41 = call ptr @proto_tree_add_item_ret_uint(ptr noundef %37, i32 noundef %38, ptr noundef %39, i32 noundef %40, i32 noundef 1, i32 noundef 0, ptr noundef %20)
  %42 = load ptr, ptr %15, align 8
  %43 = load i32, ptr @hf_nas_5gs_mm_rej_s_nssai_cause, align 4
  %44 = load ptr, ptr %8, align 8
  %45 = load i32, ptr %18, align 4
  %46 = call ptr @proto_tree_add_item(ptr noundef %42, i32 noundef %43, ptr noundef %44, i32 noundef %45, i32 noundef 1, i32 noundef 0)
  %47 = load i32, ptr %18, align 4
  %48 = add i32 %47, 1
  store i32 %48, ptr %18, align 4
  %49 = load ptr, ptr %15, align 8
  %50 = load i32, ptr @hf_nas_5gs_mm_sst, align 4
  %51 = load ptr, ptr %8, align 8
  %52 = load i32, ptr %18, align 4
  %53 = call ptr @proto_tree_add_item(ptr noundef %49, i32 noundef %50, ptr noundef %51, i32 noundef %52, i32 noundef 1, i32 noundef 0)
  %54 = load i32, ptr %18, align 4
  %55 = add i32 %54, 1
  store i32 %55, ptr %18, align 4
  %56 = load i32, ptr %20, align 4
  %57 = icmp ugt i32 %56, 1
  br i1 %57, label %58, label %66

58:                                               ; preds = %28
  %59 = load ptr, ptr %15, align 8
  %60 = load i32, ptr @hf_nas_5gs_mm_sd, align 4
  %61 = load ptr, ptr %8, align 8
  %62 = load i32, ptr %18, align 4
  %63 = call ptr @proto_tree_add_item(ptr noundef %59, i32 noundef %60, ptr noundef %61, i32 noundef %62, i32 noundef 3, i32 noundef 0)
  %64 = load i32, ptr %18, align 4
  %65 = add i32 %64, 3
  store i32 %65, ptr %18, align 4
  br label %66

66:                                               ; preds = %58, %28
  %67 = load ptr, ptr %16, align 8
  %68 = load i32, ptr %18, align 4
  %69 = load i32, ptr %19, align 4
  %70 = sub i32 %68, %69
  call void @proto_item_set_len(ptr noundef %67, i32 noundef %70)
  br label %22, !llvm.loop !32

71:                                               ; preds = %22
  %72 = load i32, ptr %12, align 4
  %73 = trunc i32 %72 to i16
  call void @llvm.lifetime.end.p0(i64 4, ptr %20) #11
  call void @llvm.lifetime.end.p0(i64 4, ptr %19) #11
  call void @llvm.lifetime.end.p0(i64 4, ptr %18) #11
  call void @llvm.lifetime.end.p0(i64 4, ptr %17) #11
  call void @llvm.lifetime.end.p0(i64 8, ptr %16) #11
  call void @llvm.lifetime.end.p0(i64 8, ptr %15) #11
  ret i16 %73
}