; Function Attrs: null_pointer_is_valid sspstrong uwtable
define internal noundef zeroext i16 @de_nas_5gs_mm_rej_nssai(ptr noundef %0, ptr noundef %1, ptr readnone captures(none) %2, i32 noundef %3, i32 noundef %4, ptr readnone captures(none) %5, i32 %6) #0 {
  %8 = alloca ptr, align 8
  %9 = alloca i32, align 4
  call void @llvm.lifetime.start.p0(i64 8, ptr nonnull %8) #12
  call void @llvm.lifetime.start.p0(i64 4, ptr nonnull %9) #12
  %.not = icmp eq i32 %4, 0
  br i1 %.not, label %._crit_edge, label %.lr.ph

.lr.ph:                                           ; preds = %7, %27
  %.029 = phi i32 [ %11, %27 ], [ 1, %7 ]
  %.02628 = phi i32 [ %.1, %27 ], [ %3, %7 ]
  %10 = load i32, ptr @ett_nas_5gs_mm_rej_nssai, align 4
  %11 = add i32 %.029, 1
  %12 = call ptr (ptr, ptr, i32, i32, i32, ptr, ptr, ...) @proto_tree_add_subtree_format(ptr noundef %1, ptr noundef %0, i32 noundef %.02628, i32 noundef -1, i32 noundef %10, ptr noundef nonnull %8, ptr noundef nonnull @.str.1724, i32 noundef %.029)
  %13 = load i32, ptr @hf_nas_5gs_mm_len_of_rej_s_nssai, align 4
  %14 = call ptr @proto_tree_add_item_ret_uint(ptr noundef %12, i32 noundef %13, ptr noundef %0, i32 noundef %.02628, i32 noundef 1, i32 noundef 0, ptr noundef nonnull %9)
  %15 = load i32, ptr @hf_nas_5gs_mm_rej_s_nssai_cause, align 4
  %16 = call ptr @proto_tree_add_item(ptr noundef %12, i32 noundef %15, ptr noundef %0, i32 noundef %.02628, i32 noundef 1, i32 noundef 0)
  %17 = add i32 %.02628, 1
  %18 = load i32, ptr @hf_nas_5gs_mm_sst, align 4
  %19 = call ptr @proto_tree_add_item(ptr noundef %12, i32 noundef %18, ptr noundef %0, i32 noundef %17, i32 noundef 1, i32 noundef 0)
  %20 = add i32 %.02628, 2
  %21 = load i32, ptr %9, align 4
  %22 = icmp ugt i32 %21, 1
  br i1 %22, label %23, label %27

23:                                               ; preds = %.lr.ph
  %24 = load i32, ptr @hf_nas_5gs_mm_sd, align 4
  %25 = call ptr @proto_tree_add_item(ptr noundef %12, i32 noundef %24, ptr noundef %0, i32 noundef %20, i32 noundef 3, i32 noundef 0)
  %26 = add i32 %.02628, 5
  br label %27

27:                                               ; preds = %23, %.lr.ph
  %.1 = phi i32 [ %26, %23 ], [ %20, %.lr.ph ]
  %28 = load ptr, ptr %8, align 8
  %29 = sub i32 %.1, %.02628
  call void @proto_item_set_len(ptr noundef %28, i32 noundef %29)
  %30 = sub i32 %.1, %3
  %31 = icmp ult i32 %30, %4
  br i1 %31, label %.lr.ph, label %._crit_edge, !llvm.loop !32

._crit_edge:                                      ; preds = %27, %7
  %32 = trunc i32 %4 to i16
  call void @llvm.lifetime.end.p0(i64 4, ptr nonnull %9) #12
  call void @llvm.lifetime.end.p0(i64 8, ptr nonnull %8) #12
  ret i16 %32
}